   1               		.file	"Wireless_Bootloader_ATmega328.c"
   2               	__SREG__ = 0x3f
   3               	__SP_H__ = 0x3e
   4               	__SP_L__ = 0x3d
   5               	__CCP__ = 0x34
   6               	__tmp_reg__ = 0
   7               	__zero_reg__ = 1
  15               	.Ltext0:
  16               	.global	onboard_program_write
  18               	onboard_program_write:
  19               	.LFB9:
  20               	.LM1:
  21               	.LVL0:
  22 0000 0F93      		push r16
  23 0002 1F93      		push r17
  24 0004 CF93      		push r28
  25 0006 DF93      		push r29
  26               	/* prologue: function */
  27               	/* frame size = 0 */
  28               	/* stack size = 4 */
  29               	.L__stack_usage = 4
  30 0008 DA01      		movw r26,r20
  31               	.LM2:
  32 000a 1FB7      		in r17,__SREG__
  33               	.LVL1:
  34               	.LM3:
  35               	/* #APP */
  36               	 ;  206 "Wireless_Bootloader_ATmega328.c" 1
  37 000c F894      		cli
  38               	 ;  0 "" 2
  39               	/* #NOAPP */
  40               	.L2:
  41               	.LM4:
  42 000e F999      		sbic 63-32,1
  43 0010 00C0      		rjmp .L2
  44               	.LM5:
  45 0012 83E0      		ldi r24,lo8(3)
  46 0014 FB01      		movw r30,r22
  47               	/* #APP */
  48               	 ;  210 "Wireless_Bootloader_ATmega328.c" 1
  49 0016 8093 5700 		sts 87, r24
  50 001a E895      		spm
  51               		
  52               	 ;  0 "" 2
  53               	/* #NOAPP */
  54               	.L3:
  55               	.LM6:
  56 001c 07B6      		in __tmp_reg__,87-32
  57 001e 00FC      		sbrc __tmp_reg__,0
  58 0020 00C0      		rjmp .L3
  59               	.LM7:
  60 0022 CB01      		movw r24,r22
  61 0024 8058      		subi r24,lo8(-(128))
  62 0026 9F4F      		sbci r25,hi8(-(128))
  63 0028 FB01      		movw r30,r22
  64               	.LBB2:
  65               	.LM8:
  66 002a 01E0      		ldi r16,lo8(1)
  67               	.LVL2:
  68               	.L4:
  69               	.LM9:
  70 002c 4C91      		ld r20,X
  71               	.LVL3:
  72               	.LM10:
  73 002e 1196      		adiw r26,1
  74 0030 3C91      		ld r19,X
  75 0032 1197      		sbiw r26,1
  76 0034 20E0      		ldi r18,lo8(0)
  77 0036 E901      		movw r28,r18
  78 0038 C40F      		add r28,r20
  79 003a D11D      		adc r29,__zero_reg__
  80               	.LVL4:
  81               	.LM11:
  82 003c 1296      		adiw r26,2
  83               	.LVL5:
  84               	.LM12:
  85               	/* #APP */
  86               	 ;  220 "Wireless_Bootloader_ATmega328.c" 1
  87 003e 0E01      		movw  r0, r28
  88 0040 0093 5700 		sts 87, r16
  89 0044 E895      		spm
  90 0046 1124      		clr  r1
  91               		
  92               	 ;  0 "" 2
  93               	/* #NOAPP */
  94 0048 3296      		adiw r30,2
  95               	.LBE2:
  96               	.LM13:
  97 004a E817      		cp r30,r24
  98 004c F907      		cpc r31,r25
  99 004e 01F4      		brne .L4
 100               	.LM14:
 101 0050 85E0      		ldi r24,lo8(5)
 102 0052 FB01      		movw r30,r22
 103               	/* #APP */
 104               	 ;  223 "Wireless_Bootloader_ATmega328.c" 1
 105 0054 8093 5700 		sts 87, r24
 106 0058 E895      		spm
 107               		
 108               	 ;  0 "" 2
 109               	/* #NOAPP */
 110               	.L5:
 111               	.LM15:
 112 005a 07B6      		in __tmp_reg__,87-32
 113 005c 00FC      		sbrc __tmp_reg__,0
 114 005e 00C0      		rjmp .L5
 115               	.LM16:
 116 0060 81E1      		ldi r24,lo8(17)
 117               	/* #APP */
 118               	 ;  229 "Wireless_Bootloader_ATmega328.c" 1
 119 0062 8093 5700 		sts 87, r24
 120 0066 E895      		spm
 121               		
 122               	 ;  0 "" 2
 123               	.LM17:
 124               	/* #NOAPP */
 125 0068 1FBF      		out __SREG__,r17
 126               	/* epilogue start */
 127               	.LM18:
 128 006a DF91      		pop r29
 129 006c CF91      		pop r28
 130 006e 1F91      		pop r17
 131               	.LVL6:
 132 0070 0F91      		pop r16
 133 0072 0895      		ret
 134               	.LFE9:
 136               	.global	putch
 138               	putch:
 139               	.LFB10:
 140               	.LM19:
 141               	/* prologue: function */
 142               	/* frame size = 0 */
 143               	/* stack size = 0 */
 144               	.L__stack_usage = 0
 145               	.LVL7:
 146               	.L11:
 147               	.LM20:
 148 0074 9091 C000 		lds r25,192
 149 0078 95FF      		sbrs r25,5
 150 007a 00C0      		rjmp .L11
 151               	.LM21:
 152 007c 8093 C600 		sts 198,r24
 153               	/* epilogue start */
 154               	.LM22:
 155 0080 0895      		ret
 156               	.LFE10:
 158               	.global	putchKID
 160               	putchKID:
 161               	.LFB6:
 162               	.LM23:
 163               	/* prologue: function */
 164               	/* frame size = 0 */
 165               	/* stack size = 0 */
 166               	.L__stack_usage = 0
 167               	.LVL8:
 168               	.LM24:
 169 0082 8BE4      		ldi r24,lo8(75)
 170 0084 0E94 0000 		call putch
 171               	.LVL9:
 172 0088 80E3      		ldi r24,lo8(48)
 173 008a 0E94 0000 		call putch
 174               	.LVL10:
 175 008e 80E3      		ldi r24,lo8(48)
 176 0090 0E94 0000 		call putch
 177               	.LVL11:
 178 0094 80E3      		ldi r24,lo8(48)
 179 0096 0E94 0000 		call putch
 180               	.LVL12:
 181               	/* epilogue start */
 182               	.LM25:
 183 009a 0895      		ret
 184               	.LFE6:
 186               	.global	getch
 188               	getch:
 189               	.LFB11:
 190               	.LM26:
 191               	/* prologue: function */
 192               	/* frame size = 0 */
 193               	/* stack size = 0 */
 194               	.L__stack_usage = 0
 195               	.LM27:
 196 009c 81E0      		ldi r24,lo8(1)
 197 009e 8093 0000 		sts retransmit_flag,r24
 198               	.LVL13:
 199               	.LM28:
 200 00a2 80E0      		ldi r24,lo8(0)
 201 00a4 90E0      		ldi r25,hi8(0)
 202 00a6 DC01      		movw r26,r24
 203               	.LM29:
 204 00a8 00C0      		rjmp .L15
 205               	.LVL14:
 206               	.L17:
 207               	.LM30:
 208 00aa 0196      		adiw r24,1
 209 00ac A11D      		adc r26,__zero_reg__
 210 00ae B11D      		adc r27,__zero_reg__
 211               	.LVL15:
 212               	.LM31:
 213 00b0 8730      		cpi r24,lo8(-90361)
 214 00b2 2FE9      		ldi r18,hi8(-90361)
 215 00b4 9207      		cpc r25,r18
 216 00b6 2EEF      		ldi r18,hlo8(-90361)
 217 00b8 A207      		cpc r26,r18
 218 00ba 2FEF      		ldi r18,hhi8(-90361)
 219 00bc B207      		cpc r27,r18
 220 00be 01F4      		brne .L15
 221               	.LM32:
 222 00c0 1092 0000 		sts retransmit_flag,__zero_reg__
 223               	.LM33:
 224 00c4 00C0      		rjmp .L16
 225               	.LVL16:
 226               	.L15:
 227               	.LM34:
 228 00c6 2091 C000 		lds r18,192
 229 00ca 27FF      		sbrs r18,7
 230 00cc 00C0      		rjmp .L17
 231               	.L16:
 232               	.LM35:
 233 00ce 8091 C600 		lds r24,198
 234               	.LVL17:
 235               	/* epilogue start */
 236               	.LM36:
 237 00d2 0895      		ret
 238               	.LFE11:
 240               	.global	checkID
 242               	checkID:
 243               	.LFB7:
 244               	.LM37:
 245 00d4 EF92      		push r14
 246 00d6 FF92      		push r15
 247 00d8 0F93      		push r16
 248 00da 1F93      		push r17
 249 00dc CF93      		push r28
 250 00de DF93      		push r29
 251               	/* prologue: function */
 252               	/* frame size = 0 */
 253               	/* stack size = 6 */
 254               	.L__stack_usage = 6
 255               	.LVL18:
 256               	.LM38:
 257 00e0 00E0      		ldi r16,lo8(ID)
 258 00e2 10E0      		ldi r17,hi8(ID)
 259               	.LM39:
 260 00e4 C0E0      		ldi r28,lo8(0)
 261 00e6 D0E0      		ldi r29,hi8(0)
 262               	.LVL19:
 263               	.L21:
 264               	.LM40:
 265 00e8 F801      		movw r30,r16
 266 00ea F190      		ld r15,Z+
 267 00ec 8F01      		movw r16,r30
 268 00ee 0E94 0000 		call getch
 269 00f2 F816      		cp r15,r24
 270 00f4 01F0      		breq .L20
 271               	.LM41:
 272 00f6 CFEF      		ldi r28,lo8(-1)
 273 00f8 DFEF      		ldi r29,hi8(-1)
 274               	.L20:
 275               	.LVL20:
 276               	.LM42:
 277 00fa F0E0      		ldi r31,hi8(ID+4)
 278 00fc 0030      		cpi r16,lo8(ID+4)
 279 00fe 1F07      		cpc r17,r31
 280 0100 01F4      		brne .L21
 281               	.LM43:
 282 0102 CE01      		movw r24,r28
 283               	/* epilogue start */
 284 0104 DF91      		pop r29
 285 0106 CF91      		pop r28
 286               	.LVL21:
 287 0108 1F91      		pop r17
 288 010a 0F91      		pop r16
 289 010c FF90      		pop r15
 290 010e EF90      		pop r14
 291 0110 0895      		ret
 292               	.LFE7:
 294               	.global	flash_led
 296               	flash_led:
 297               	.LFB12:
 298               	.LM44:
 299               	.LVL22:
 300               	/* prologue: function */
 301               	/* frame size = 0 */
 302               	/* stack size = 0 */
 303               	.L__stack_usage = 0
 304               	.LM45:
 305 0112 90E0      		ldi r25,lo8(0)
 306 0114 00C0      		rjmp .L25
 307               	.LVL23:
 308               	.L26:
 309               	.LM46:
 310 0116 2D9A      		sbi 37-32,5
 311               	.LM47:
 312 0118 2D98      		cbi 37-32,5
 313               	.LM48:
 314 011a 9F5F      		subi r25,lo8(-(1))
 315               	.LVL24:
 316               	.L25:
 317               	.LM49:
 318 011c 9817      		cp r25,r24
 319 011e 00F0      		brlo .L26
 320               	/* epilogue start */
 321               	.LM50:
 322 0120 0895      		ret
 323               	.LFE12:
 325               	.global	main
 327               	main:
 328               	.LFB8:
 329               	.LM51:
 330 0122 CF92      		push r12
 331 0124 DF92      		push r13
 332 0126 EF92      		push r14
 333 0128 FF92      		push r15
 334 012a 0F93      		push r16
 335 012c 1F93      		push r17
 336 012e CF93      		push r28
 337 0130 DF93      		push r29
 338               	/* prologue: function */
 339               	/* frame size = 0 */
 340               	/* stack size = 8 */
 341               	.L__stack_usage = 8
 342               	.LVL25:
 343               	.LM52:
 344 0132 1092 C500 		sts 197,__zero_reg__
 345               	.LM53:
 346 0136 83E3      		ldi r24,lo8(51)
 347 0138 8093 C400 		sts 196,r24
 348               	.LM54:
 349 013c 88E1      		ldi r24,lo8(24)
 350 013e 8093 C100 		sts 193,r24
 351               	.LM55:
 352 0142 259A      		sbi 36-32,5
 353               	.LM56:
 354 0144 81E0      		ldi r24,lo8(1)
 355 0146 0E94 0000 		call flash_led
 356               	.LM57:
 357 014a 85E0      		ldi r24,lo8(5)
 358 014c 0E94 0000 		call putch
 359               	.LVL26:
 360               	.LM58:
 361 0150 EE24      		clr r14
 362 0152 FF24      		clr r15
 363 0154 8701      		movw r16,r14
 364               	.LM59:
 365 0156 00C0      		rjmp .L48
 366               	.LVL27:
 367               	.L30:
 368               	.LM60:
 369 0158 0894      		sec
 370 015a E11C      		adc r14,__zero_reg__
 371 015c F11C      		adc r15,__zero_reg__
 372 015e 011D      		adc r16,__zero_reg__
 373 0160 111D      		adc r17,__zero_reg__
 374               	.LVL28:
 375               	.LM61:
 376 0162 87E0      		ldi r24,lo8(-90361)
 377 0164 E816      		cp r14,r24
 378 0166 8FE9      		ldi r24,hi8(-90361)
 379 0168 F806      		cpc r15,r24
 380 016a 8EEF      		ldi r24,hlo8(-90361)
 381 016c 0807      		cpc r16,r24
 382 016e 8FEF      		ldi r24,hhi8(-90361)
 383 0170 1807      		cpc r17,r24
 384 0172 00F0      		brlo .L48
 385               	.LM62:
 386 0174 E091 0000 		lds r30,app_start
 387 0178 F091 0000 		lds r31,app_start+1
 388 017c 0995      		icall
 389               	.LVL29:
 390               	.L48:
 391               	.LM63:
 392 017e 8091 C000 		lds r24,192
 393 0182 87FF      		sbrs r24,7
 394 0184 00C0      		rjmp .L30
 395               	.LM64:
 396 0186 8091 C600 		lds r24,198
 397 018a 8630      		cpi r24,lo8(6)
 398 018c 01F0      		breq .L31
 399               	.LM65:
 400 018e E091 0000 		lds r30,app_start
 401 0192 F091 0000 		lds r31,app_start+1
 402 0196 0995      		icall
 403               	.L31:
 404               	.LM66:
 405 0198 80E0      		ldi r24,lo8(0)
 406               	.LM67:
 407 019a 91E1      		ldi r25,lo8(17)
 408 019c D92E      		mov r13,r25
 409               	.LVL30:
 410               	.L45:
 411               	.LM68:
 412 019e 8823      		tst r24
 413 01a0 01F0      		breq .L33
 414               	.LVL31:
 415               	.L34:
 416               	.LM69:
 417 01a2 87E0      		ldi r24,lo8(7)
 418 01a4 00C0      		rjmp .L50
 419               	.L33:
 420               	.LM70:
 421 01a6 84E5      		ldi r24,lo8(84)
 422               	.L50:
 423 01a8 0E94 0000 		call putch
 424               	.L49:
 425               	.LM71:
 426 01ac 0E94 0000 		call getch
 427 01b0 8A33      		cpi r24,lo8(58)
 428 01b2 01F0      		breq .L36
 429               	.LM72:
 430 01b4 8091 0000 		lds r24,retransmit_flag
 431 01b8 8823      		tst r24
 432 01ba 01F4      		brne .L49
 433 01bc 00C0      		rjmp .L34
 434               	.L36:
 435               	.LM73:
 436 01be 0E94 0000 		call getch
 437 01c2 8093 0000 		sts page_length,r24
 438               	.LM74:
 439 01c6 9091 0000 		lds r25,retransmit_flag
 440 01ca 9923      		tst r25
 441 01cc 01F0      		breq .L34
 442               	.LM75:
 443 01ce 8335      		cpi r24,lo8(83)
 444 01d0 01F4      		brne .L38
 445               	.LM76:
 446 01d2 86E4      		ldi r24,lo8(70)
 447 01d4 0E94 0000 		call putch
 448               	.LM77:
 449               	/* #APP */
 450               	 ;  166 "Wireless_Bootloader_ATmega328.c" 1
 451 01d8 D092 5700 		sts 87, r13
 452 01dc E895      		spm
 453               		
 454               	 ;  0 "" 2
 455               	.LM78:
 456               	/* #NOAPP */
 457 01de E091 0000 		lds r30,app_start
 458 01e2 F091 0000 		lds r31,app_start+1
 459 01e6 0995      		icall
 460               	.L38:
 461               	.LM79:
 462 01e8 0E94 0000 		call getch
 463 01ec 8093 0000 		sts page_address,r24
 464 01f0 8091 0000 		lds r24,retransmit_flag
 465 01f4 8823      		tst r24
 466 01f6 01F0      		breq .L34
 467               	.LM80:
 468 01f8 0E94 0000 		call getch
 469 01fc 8093 0000 		sts page_address+1,r24
 470 0200 8091 0000 		lds r24,retransmit_flag
 471 0204 8823      		tst r24
 472 0206 01F0      		breq .L34
 473               	.LM81:
 474 0208 0E94 0000 		call getch
 475 020c C82E      		mov r12,r24
 476               	.LVL32:
 477               	.LM82:
 478 020e 8091 0000 		lds r24,retransmit_flag
 479               	.LVL33:
 480 0212 8823      		tst r24
 481 0214 01F0      		breq .L34
 482 0216 C0E0      		ldi r28,lo8(incoming_page_data)
 483 0218 D0E0      		ldi r29,hi8(incoming_page_data)
 484 021a 7E01      		movw r14,r28
 485 021c 00E0      		ldi r16,lo8(0)
 486 021e 10E0      		ldi r17,hi8(0)
 487 0220 00C0      		rjmp .L39
 488               	.LVL34:
 489               	.L40:
 490               	.LM83:
 491 0222 0E94 0000 		call getch
 492 0226 F701      		movw r30,r14
 493 0228 8193      		st Z+,r24
 494 022a 7F01      		movw r14,r30
 495               	.LM84:
 496 022c 8091 0000 		lds r24,retransmit_flag
 497 0230 8823      		tst r24
 498 0232 01F4      		brne .+2
 499 0234 00C0      		rjmp .L34
 500               	.LM85:
 501 0236 0F5F      		subi r16,lo8(-(1))
 502 0238 1F4F      		sbci r17,hi8(-(1))
 503               	.LVL35:
 504               	.L39:
 505               	.LM86:
 506 023a 9091 0000 		lds r25,page_length
 507 023e 292F      		mov r18,r25
 508 0240 30E0      		ldi r19,lo8(0)
 509 0242 0217      		cp r16,r18
 510 0244 1307      		cpc r17,r19
 511 0246 00F0      		brlo .L40
 512               	.LM87:
 513 0248 2050      		subi r18,lo8(-(incoming_page_data))
 514 024a 3040      		sbci r19,hi8(-(incoming_page_data))
 515 024c 00C0      		rjmp .L41
 516               	.LVL36:
 517               	.L42:
 518               	.LM88:
 519 024e 8991      		ld r24,Y+
 520 0250 C80E      		add r12,r24
 521               	.LVL37:
 522               	.L41:
 523               	.LM89:
 524 0252 C217      		cp r28,r18
 525 0254 D307      		cpc r29,r19
 526 0256 01F4      		brne .L42
 527               	.LVL38:
 528               	.LM90:
 529 0258 8091 0000 		lds r24,page_address+1
 530 025c 2091 0000 		lds r18,page_address
 531 0260 820F      		add r24,r18
 532               	.LM91:
 533 0262 890F      		add r24,r25
 534               	.LM92:
 535 0264 8C0D      		add r24,r12
 536               	.LVL39:
 537               	.LM93:
 538 0266 01F0      		breq .+2
 539 0268 00C0      		rjmp .L45
 540               	.LM94:
 541 026a 6091 0000 		lds r22,page_address
 542 026e 7091 0000 		lds r23,page_address+1
 543 0272 80E0      		ldi r24,lo8(0)
 544 0274 90E0      		ldi r25,hi8(0)
 545               	.LVL40:
 546 0276 40E0      		ldi r20,lo8(incoming_page_data)
 547 0278 50E0      		ldi r21,hi8(incoming_page_data)
 548 027a 0E94 0000 		call onboard_program_write
 549 027e 00C0      		rjmp .L33
 550               	.LFE8:
 552               	.global	app_start
 553               	.global	app_start
 554               		.section .bss
 557               	app_start:
 558 0000 0000      		.skip 2,0
 559               	.global	retransmit_flag
 560               		.data
 563               	retransmit_flag:
 564 0000 01        		.byte	1
 565               	.global	ID
 568               	ID:
 569 0001 4B30 3030 		.ascii	"K000"
 570               		.comm incoming_page_data,256,1
 571               		.comm page_length,1,1
 572               		.comm page_address,2,1
 645               	.Letext0:
DEFINED SYMBOLS
                            *ABS*:00000000 Wireless_Bootloader_ATmega328.c
     /tmp/cc8AqHJt.s:2      *ABS*:0000003f __SREG__
     /tmp/cc8AqHJt.s:3      *ABS*:0000003e __SP_H__
     /tmp/cc8AqHJt.s:4      *ABS*:0000003d __SP_L__
     /tmp/cc8AqHJt.s:5      *ABS*:00000034 __CCP__
     /tmp/cc8AqHJt.s:6      *ABS*:00000000 __tmp_reg__
     /tmp/cc8AqHJt.s:7      *ABS*:00000001 __zero_reg__
     /tmp/cc8AqHJt.s:18     .text:00000000 onboard_program_write
     /tmp/cc8AqHJt.s:138    .text:00000074 putch
     /tmp/cc8AqHJt.s:160    .text:00000082 putchKID
     /tmp/cc8AqHJt.s:188    .text:0000009c getch
     /tmp/cc8AqHJt.s:563    .data:00000000 retransmit_flag
     /tmp/cc8AqHJt.s:242    .text:000000d4 checkID
     /tmp/cc8AqHJt.s:568    .data:00000001 ID
     /tmp/cc8AqHJt.s:296    .text:00000112 flash_led
     /tmp/cc8AqHJt.s:327    .text:00000122 main
     /tmp/cc8AqHJt.s:557    .bss:00000000 app_start
                            *COM*:00000001 page_length
                            *COM*:00000002 page_address
                            *COM*:00000100 incoming_page_data

UNDEFINED SYMBOLS
__do_copy_data
__do_clear_bss
